#include <math.h>
#include <stdio.h>
#include <stdlib.h>
#include <string.h>

int main()
{
    int n,i,k,a,time;
    k=1;
    time=0;
    scanf("%d",&n);
    int*sz=(int*)malloc(sizeof(int)*n);
    for(i=0;i<n;i++)
    {
                    scanf("%d",&sz[i]);
    }
    for(i=0;i<n-1;i++)
    {
                    for(k=i+1;k<n;k++)
                    {
                              if(sz[i]==sz[k])
                              {
                                              for(a=k;a<n-1;a++)
                                              {
                                              sz[a]=sz[a+1];
                                              }
                                              n--;
                                              k--;
                              }
                    }
    }
    for(i=0;i<n;i++)
    {
                         if(i==0)
                         printf("%d",sz[i]);
                         else if(i!=0)
                         printf(" %d",sz[i]);
    }
    free(sz);
return 0;
}